; ModuleID = '34/2688.c'
source_filename = "34/2688.c"
target datalayout = "e-m:e-p270:32:32-p271:32:32-p272:64:64-i64:64-f80:128-n8:16:32:64-S128"
target triple = "x86_64-pc-linux-gnu"

@.str = private unnamed_addr constant [4 x i8] c"%d\0A\00", align 1
@.str.1 = private unnamed_addr constant [4 x i8] c"End\00", align 1
@.str.2 = private unnamed_addr constant [11 x i8] c"%d*3+1=%d\0A\00", align 1
@.str.3 = private unnamed_addr constant [9 x i8] c"%d/2=%d\0A\00", align 1

; Function Attrs: noinline nounwind uwtable
define dso_local void @main() #0 {
  %1 = alloca i32, align 4
  %2 = alloca i32, align 4
  %3 = call i32 (i8*, ...) @__isoc99_scanf(i8* getelementptr inbounds ([4 x i8], [4 x i8]* @.str, i64 0, i64 0), i32* %1)
  %4 = load i32, i32* %1, align 4
  store i32 %4, i32* %2, align 4
  %5 = load i32, i32* %1, align 4
  %6 = icmp eq i32 %5, 1
  br i1 %6, label %7, label %9

7:                                                ; preds = %0
  %8 = call i32 (i8*, ...) @printf(i8* getelementptr inbounds ([4 x i8], [4 x i8]* @.str.1, i64 0, i64 0))
  br label %9

9:                                                ; preds = %7, %0
  %10 = load i32, i32* %1, align 4
  %11 = icmp ne i32 %10, 1
  br i1 %11, label %12, label %49

12:                                               ; preds = %9
  br label %13

13:                                               ; preds = %44, %12
  %14 = load i32, i32* %2, align 4
  %15 = srem i32 %14, 2
  %16 = icmp ne i32 %15, 0
  br i1 %16, label %17, label %29

17:                                               ; preds = %13
  %18 = load i32, i32* %2, align 4
  %19 = icmp ne i32 %18, 1
  br i1 %19, label %20, label %29

20:                                               ; preds = %17
  %21 = load i32, i32* %2, align 4
  %22 = load i32, i32* %2, align 4
  %23 = mul nsw i32 %22, 3
  %24 = add nsw i32 %23, 1
  %25 = call i32 (i8*, ...) @printf(i8* getelementptr inbounds ([11 x i8], [11 x i8]* @.str.2, i64 0, i64 0), i32 %21, i32 %24)
  %26 = load i32, i32* %2, align 4
  %27 = mul nsw i32 %26, 3
  %28 = add nsw i32 %27, 1
  store i32 %28, i32* %2, align 4
  br label %29

29:                                               ; preds = %20, %17, %13
  %30 = load i32, i32* %2, align 4
  %31 = srem i32 %30, 2
  %32 = icmp eq i32 %31, 0
  br i1 %32, label %33, label %43

33:                                               ; preds = %29
  %34 = load i32, i32* %2, align 4
  %35 = icmp ne i32 %34, 1
  br i1 %35, label %36, label %43

36:                                               ; preds = %33
  %37 = load i32, i32* %2, align 4
  %38 = load i32, i32* %2, align 4
  %39 = sdiv i32 %38, 2
  %40 = call i32 (i8*, ...) @printf(i8* getelementptr inbounds ([9 x i8], [9 x i8]* @.str.3, i64 0, i64 0), i32 %37, i32 %39)
  %41 = load i32, i32* %2, align 4
  %42 = sdiv i32 %41, 2
  store i32 %42, i32* %2, align 4
  br label %43

43:                                               ; preds = %36, %33, %29
  br label %44

44:                                               ; preds = %43
  %45 = load i32, i32* %2, align 4
  %46 = icmp ne i32 %45, 1
  br i1 %46, label %13, label %47

47:                                               ; preds = %44
  %48 = call i32 (i8*, ...) @printf(i8* getelementptr inbounds ([4 x i8], [4 x i8]* @.str.1, i64 0, i64 0))
  br label %49

49:                                               ; preds = %47, %9
  ret void
}

declare dso_local i32 @__isoc99_scanf(i8*, ...) #1

declare dso_local i32 @printf(i8*, ...) #1


!llvm.module.flags = !{!0}
!llvm.ident = !{!1}

!0 = !{i32 1, !"wchar_size", i32 4}
!1 = !{!"clang version 10.0.0-4ubuntu1 "}
